target datalayout = "e-m:e-p270:32:32-p271:32:32-p272:64:64-i64:64-i128:128-f80:128-n8:16:32:64-S128"
target triple = "x86_64-pc-linux-gnu"

%struct._object = type { %union.anon, ptr }
%union.anon = type { i64 }
%struct.PyASCIIObject = type { %struct._object, i64, i64, %struct.anon.0 }
%struct.anon.0 = type { i16, i16 }
%struct.PyCompactUnicodeObject = type { %struct.PyASCIIObject, i64, ptr }
%struct.PyUnicodeObject = type { %struct.PyCompactUnicodeObject, %union.anon.1 }
%union.anon.1 = type { ptr }

@PyExc_ValueError = external global ptr, align 8
@.str.2 = private unnamed_addr constant [41 x i8] c"Too many decimal digits in format string\00", align 1

; Function Attrs: inlinehint nounwind uwtable
define internal i32 @PyUnicode_IS_ASCII(ptr noundef %0) #2 {
  %2 = alloca ptr, align 8
  store ptr %0, ptr %2, align 8, !tbaa !8
  %3 = load ptr, ptr %2, align 8, !tbaa !8
  %4 = getelementptr inbounds nuw %struct.PyASCIIObject, ptr %3, i32 0, i32 3
  %5 = getelementptr inbounds nuw %struct.anon.0, ptr %4, i32 0, i32 1
  %6 = load i16, ptr %5, align 2
  %7 = lshr i16 %6, 4
  %8 = and i16 %7, 1
  %9 = zext i16 %8 to i32
  ret i32 %9
}

; Function Attrs: inlinehint nounwind uwtable
define internal ptr @_PyUnicode_NONCOMPACT_DATA(ptr noundef %0) #2 {
  %2 = alloca ptr, align 8
  %3 = alloca ptr, align 8
  store ptr %0, ptr %2, align 8, !tbaa !8
  call void @llvm.lifetime.start.p0(i64 8, ptr %3) #10
  %4 = load ptr, ptr %2, align 8, !tbaa !8
  %5 = getelementptr inbounds nuw %struct.PyUnicodeObject, ptr %4, i32 0, i32 1
  %6 = load ptr, ptr %5, align 8, !tbaa !27
  store ptr %6, ptr %3, align 8, !tbaa !4
  %7 = load ptr, ptr %3, align 8, !tbaa !4
  call void @llvm.lifetime.end.p0(i64 8, ptr %3) #10
  ret ptr %7
}

; Function Attrs: inlinehint nounwind uwtable
define internal ptr @_PyUnicode_COMPACT_DATA(ptr noundef %0) #2 {
  %2 = alloca ptr, align 8
  %3 = alloca ptr, align 8
  store ptr %0, ptr %3, align 8, !tbaa !8
  %4 = load ptr, ptr %3, align 8, !tbaa !8
  %5 = call i32 @PyUnicode_IS_ASCII(ptr noundef %4)
  %6 = icmp ne i32 %5, 0
  br i1 %6, label %7, label %10

7:                                                ; preds = %1
  %8 = load ptr, ptr %3, align 8, !tbaa !8
  %9 = getelementptr %struct.PyASCIIObject, ptr %8, i64 1
  store ptr %9, ptr %2, align 8
  br label %13

10:                                               ; preds = %1
  %11 = load ptr, ptr %3, align 8, !tbaa !8
  %12 = getelementptr %struct.PyCompactUnicodeObject, ptr %11, i64 1
  store ptr %12, ptr %2, align 8
  br label %13

13:                                               ; preds = %10, %7
  %14 = load ptr, ptr %2, align 8
  ret ptr %14
}

; Function Attrs: inlinehint nounwind uwtable
define internal i32 @PyUnicode_IS_COMPACT(ptr noundef %0) #2 {
  %2 = alloca ptr, align 8
  store ptr %0, ptr %2, align 8, !tbaa !8
  %3 = load ptr, ptr %2, align 8, !tbaa !8
  %4 = getelementptr inbounds nuw %struct.PyASCIIObject, ptr %3, i32 0, i32 3
  %5 = getelementptr inbounds nuw %struct.anon.0, ptr %4, i32 0, i32 1
  %6 = load i16, ptr %5, align 2
  %7 = lshr i16 %6, 3
  %8 = and i16 %7, 1
  %9 = zext i16 %8 to i32
  ret i32 %9
}

; Function Attrs: inlinehint nounwind uwtable
define internal i32 @PyUnicode_READ(i32 noundef %0, ptr noundef %1, i64 noundef %2) #2 {
  %4 = alloca i32, align 4
  %5 = alloca i32, align 4
  %6 = alloca ptr, align 8
  %7 = alloca i64, align 8
  store i32 %0, ptr %5, align 4, !tbaa !26
  store ptr %1, ptr %6, align 8, !tbaa !4
  store i64 %2, ptr %7, align 8, !tbaa !10
  %8 = load i32, ptr %5, align 4, !tbaa !26
  %9 = icmp eq i32 %8, 1
  br i1 %9, label %10, label %16

10:                                               ; preds = %3
  %11 = load ptr, ptr %6, align 8, !tbaa !4
  %12 = load i64, ptr %7, align 8, !tbaa !10
  %13 = getelementptr i8, ptr %11, i64 %12
  %14 = load i8, ptr %13, align 1, !tbaa !27
  %15 = zext i8 %14 to i32
  store i32 %15, ptr %4, align 4
  br label %30

16:                                               ; preds = %3
  %17 = load i32, ptr %5, align 4, !tbaa !26
  %18 = icmp eq i32 %17, 2
  br i1 %18, label %19, label %25

19:                                               ; preds = %16
  %20 = load ptr, ptr %6, align 8, !tbaa !4
  %21 = load i64, ptr %7, align 8, !tbaa !10
  %22 = getelementptr i16, ptr %20, i64 %21
  %23 = load i16, ptr %22, align 2, !tbaa !48
  %24 = zext i16 %23 to i32
  store i32 %24, ptr %4, align 4
  br label %30

25:                                               ; preds = %16
  %26 = load ptr, ptr %6, align 8, !tbaa !4
  %27 = load i64, ptr %7, align 8, !tbaa !10
  %28 = getelementptr i32, ptr %26, i64 %27
  %29 = load i32, ptr %28, align 4, !tbaa !26
  store i32 %29, ptr %4, align 4
  br label %30

30:                                               ; preds = %25, %19, %10
  %31 = load i32, ptr %4, align 4
  ret i32 %31
}

; Function Attrs: inlinehint nounwind uwtable
define internal ptr @_PyUnicode_DATA(ptr noundef %0) #2 {
  %2 = alloca ptr, align 8
  %3 = alloca ptr, align 8
  store ptr %0, ptr %3, align 8, !tbaa !8
  %4 = load ptr, ptr %3, align 8, !tbaa !8
  %5 = call i32 @PyUnicode_IS_COMPACT(ptr noundef %4)
  %6 = icmp ne i32 %5, 0
  br i1 %6, label %7, label %10

7:                                                ; preds = %1
  %8 = load ptr, ptr %3, align 8, !tbaa !8
  %9 = call ptr @_PyUnicode_COMPACT_DATA(ptr noundef %8)
  store ptr %9, ptr %2, align 8
  br label %13

10:                                               ; preds = %1
  %11 = load ptr, ptr %3, align 8, !tbaa !8
  %12 = call ptr @_PyUnicode_NONCOMPACT_DATA(ptr noundef %11)
  store ptr %12, ptr %2, align 8
  br label %13

13:                                               ; preds = %10, %7
  %14 = load ptr, ptr %2, align 8
  ret ptr %14
}

; Function Attrs: nounwind uwtable
define internal i32 @get_integer(ptr noundef %0, ptr noundef %1, i64 noundef %2, ptr noundef %3) #0 {
  %5 = alloca i32, align 4
  %6 = alloca ptr, align 8
  %7 = alloca ptr, align 8
  %8 = alloca i64, align 8
  %9 = alloca ptr, align 8
  %10 = alloca i64, align 8
  %11 = alloca i64, align 8
  %12 = alloca i64, align 8
  %13 = alloca i32, align 4
  %14 = alloca i32, align 4
  %15 = alloca ptr, align 8
  %16 = alloca i32, align 4
  store ptr %0, ptr %6, align 8, !tbaa !8
  store ptr %1, ptr %7, align 8, !tbaa !49
  store i64 %2, ptr %8, align 8, !tbaa !10
  store ptr %3, ptr %9, align 8, !tbaa !49
  call void @llvm.lifetime.start.p0(i64 8, ptr %10) #10
  call void @llvm.lifetime.start.p0(i64 8, ptr %11) #10
  call void @llvm.lifetime.start.p0(i64 8, ptr %12) #10
  %17 = load ptr, ptr %7, align 8, !tbaa !49
  %18 = load i64, ptr %17, align 8, !tbaa !10
  store i64 %18, ptr %12, align 8, !tbaa !10
  call void @llvm.lifetime.start.p0(i64 4, ptr %13) #10
  call void @llvm.lifetime.start.p0(i64 4, ptr %14) #10
  %19 = load ptr, ptr %6, align 8, !tbaa !8
  %20 = getelementptr inbounds nuw %struct.PyASCIIObject, ptr %19, i32 0, i32 3
  %21 = getelementptr inbounds nuw %struct.anon.0, ptr %20, i32 0, i32 1
  %22 = load i16, ptr %21, align 2
  %23 = and i16 %22, 7
  %24 = zext i16 %23 to i32
  store i32 %24, ptr %14, align 4, !tbaa !26
  call void @llvm.lifetime.start.p0(i64 8, ptr %15) #10
  %25 = load ptr, ptr %6, align 8, !tbaa !8
  %26 = call ptr @_PyUnicode_DATA(ptr noundef %25)
  store ptr %26, ptr %15, align 8, !tbaa !4
  store i32 0, ptr %13, align 4, !tbaa !26
  store i64 0, ptr %10, align 8, !tbaa !10
  br label %27

27:                                               ; preds = %57, %4
  %28 = load i64, ptr %12, align 8, !tbaa !10
  %29 = load i64, ptr %8, align 8, !tbaa !10
  %30 = icmp slt i64 %28, %29
  br i1 %30, label %31, label %62

31:                                               ; preds = %27
  %32 = load i32, ptr %14, align 4, !tbaa !26
  %33 = load ptr, ptr %15, align 8, !tbaa !4
  %34 = load i64, ptr %12, align 8, !tbaa !10
  %35 = call i32 @PyUnicode_READ(i32 noundef %32, ptr noundef %33, i64 noundef %34)
  %36 = call i32 @_PyUnicode_ToDecimalDigit(i32 noundef %35)
  %37 = sext i32 %36 to i64
  store i64 %37, ptr %11, align 8, !tbaa !10
  %38 = load i64, ptr %11, align 8, !tbaa !10
  %39 = icmp slt i64 %38, 0
  br i1 %39, label %40, label %41

40:                                               ; preds = %31
  br label %62

41:                                               ; preds = %31
  %42 = load i64, ptr %10, align 8, !tbaa !10
  %43 = load i64, ptr %11, align 8, !tbaa !10
  %44 = sub i64 9223372036854775807, %43
  %45 = sdiv i64 %44, 10
  %46 = icmp sgt i64 %42, %45
  br i1 %46, label %47, label %52

47:                                               ; preds = %41
  %48 = load ptr, ptr @PyExc_ValueError, align 8, !tbaa !8
  %49 = call ptr (ptr, ptr, ...) @PyErr_Format(ptr noundef %48, ptr noundef @.str.2)
  %50 = load i64, ptr %12, align 8, !tbaa !10
  %51 = load ptr, ptr %7, align 8, !tbaa !49
  store i64 %50, ptr %51, align 8, !tbaa !10
  store i32 -1, ptr %5, align 4
  store i32 1, ptr %16, align 4
  br label %68

52:                                               ; preds = %41
  %53 = load i64, ptr %10, align 8, !tbaa !10
  %54 = mul i64 %53, 10
  %55 = load i64, ptr %11, align 8, !tbaa !10
  %56 = add i64 %54, %55
  store i64 %56, ptr %10, align 8, !tbaa !10
  br label %57

57:                                               ; preds = %52
  %58 = load i64, ptr %12, align 8, !tbaa !10
  %59 = add i64 %58, 1
  store i64 %59, ptr %12, align 8, !tbaa !10
  %60 = load i32, ptr %13, align 4, !tbaa !26
  %61 = add i32 %60, 1
  store i32 %61, ptr %13, align 4, !tbaa !26
  br label %27, !llvm.loop !51

62:                                               ; preds = %40, %27
  %63 = load i64, ptr %12, align 8, !tbaa !10
  %64 = load ptr, ptr %7, align 8, !tbaa !49
  store i64 %63, ptr %64, align 8, !tbaa !10
  %65 = load i64, ptr %10, align 8, !tbaa !10
  %66 = load ptr, ptr %9, align 8, !tbaa !49
  store i64 %65, ptr %66, align 8, !tbaa !10
  %67 = load i32, ptr %13, align 4, !tbaa !26
  store i32 %67, ptr %5, align 4
  store i32 1, ptr %16, align 4
  br label %68

68:                                               ; preds = %62, %47
  call void @llvm.lifetime.end.p0(i64 8, ptr %15) #10
  call void @llvm.lifetime.end.p0(i64 4, ptr %14) #10
  call void @llvm.lifetime.end.p0(i64 4, ptr %13) #10
  call void @llvm.lifetime.end.p0(i64 8, ptr %12) #10
  call void @llvm.lifetime.end.p0(i64 8, ptr %11) #10
  call void @llvm.lifetime.end.p0(i64 8, ptr %10) #10
  %69 = load i32, ptr %5, align 4
  ret i32 %69
}