; Function Attrs: nounwind uwtable
define internal fastcc i32 @get_integer(ptr noundef readonly captures(none) %0, ptr noundef nonnull captures(none) %1, i64 noundef %2, ptr noundef nonnull writeonly captures(none) %3) unnamed_addr #0 {
  %5 = load i64, ptr %1, align 8, !tbaa !39
  %6 = getelementptr inbounds nuw i8, ptr %0, i64 34
  %7 = load i16, ptr %6, align 2
  %8 = and i16 %7, 7
  %9 = and i16 %7, 8
  %.not.i = icmp eq i16 %9, 0
  br i1 %.not.i, label %12, label %10

10:                                               ; preds = %4
  %11 = and i16 %7, 16
  %.not.i.i = icmp eq i16 %11, 0
  %.0.v.i.i = select i1 %.not.i.i, i64 56, i64 40
  %.0.i.i = getelementptr i8, ptr %0, i64 %.0.v.i.i
  br label %_PyUnicode_DATA.exit

12:                                               ; preds = %4
  %13 = getelementptr i8, ptr %0, i64 56
  %.val4.i = load ptr, ptr %13, align 8, !tbaa !10
  br label %_PyUnicode_DATA.exit

_PyUnicode_DATA.exit:                             ; preds = %10, %12
  %.0.i = phi ptr [ %.0.i.i, %10 ], [ %.val4.i, %12 ]
  %14 = icmp slt i64 %5, %2
  br i1 %14, label %.lr.ph, label %PyUnicode_READ.exit._crit_edge

.lr.ph:                                           ; preds = %_PyUnicode_DATA.exit
  %15 = trunc i64 %2 to i32
  %16 = trunc i64 %5 to i32
  %17 = sub i32 %15, %16
  switch i16 %8, label %PyUnicode_READ.exit [
    i16 1, label %PyUnicode_READ.exit.us
    i16 2, label %PyUnicode_READ.exit.us48
  ]

PyUnicode_READ.exit.us:                           ; preds = %.lr.ph, %28
  %.02232.us = phi i64 [ %30, %28 ], [ 0, %.lr.ph ]
  %.02331.us = phi i32 [ %32, %28 ], [ 0, %.lr.ph ]
  %.02430.us = phi i64 [ %31, %28 ], [ %5, %.lr.ph ]
  %18 = getelementptr i8, ptr %.0.i, i64 %.02430.us
  %19 = load i8, ptr %18, align 1, !tbaa !10
  %20 = zext i8 %19 to i32
  %21 = tail call i32 @_PyUnicode_ToDecimalDigit(i32 noundef %20) #12
  %22 = sext i32 %21 to i64
  %23 = icmp slt i32 %21, 0
  br i1 %23, label %PyUnicode_READ.exit._crit_edge, label %24

24:                                               ; preds = %PyUnicode_READ.exit.us
  %25 = sub nuw nsw i64 9223372036854775807, %22
  %26 = udiv i64 %25, 10
  %27 = icmp sgt i64 %.02232.us, %26
  br i1 %27, label %.split.us, label %28

28:                                               ; preds = %24
  %29 = mul i64 %.02232.us, 10
  %30 = add i64 %29, %22
  %31 = add i64 %.02430.us, 1
  %32 = add i32 %.02331.us, 1
  %exitcond77.not = icmp eq i64 %31, %2
  br i1 %exitcond77.not, label %PyUnicode_READ.exit._crit_edge, label %PyUnicode_READ.exit.us, !llvm.loop !53

PyUnicode_READ.exit.us48:                         ; preds = %.lr.ph, %43
  %.02232.us45 = phi i64 [ %45, %43 ], [ 0, %.lr.ph ]
  %.02331.us46 = phi i32 [ %47, %43 ], [ 0, %.lr.ph ]
  %.02430.us47 = phi i64 [ %46, %43 ], [ %5, %.lr.ph ]
  %33 = getelementptr i16, ptr %.0.i, i64 %.02430.us47
  %34 = load i16, ptr %33, align 2, !tbaa !42
  %35 = zext i16 %34 to i32
  %36 = tail call i32 @_PyUnicode_ToDecimalDigit(i32 noundef %35) #12
  %37 = sext i32 %36 to i64
  %38 = icmp slt i32 %36, 0
  br i1 %38, label %PyUnicode_READ.exit._crit_edge, label %39

39:                                               ; preds = %PyUnicode_READ.exit.us48
  %40 = sub nuw nsw i64 9223372036854775807, %37
  %41 = udiv i64 %40, 10
  %42 = icmp sgt i64 %.02232.us45, %41
  br i1 %42, label %.split.us, label %43

43:                                               ; preds = %39
  %44 = mul i64 %.02232.us45, 10
  %45 = add i64 %44, %37
  %46 = add i64 %.02430.us47, 1
  %47 = add i32 %.02331.us46, 1
  %exitcond.not = icmp eq i64 %46, %2
  br i1 %exitcond.not, label %PyUnicode_READ.exit._crit_edge, label %PyUnicode_READ.exit.us48, !llvm.loop !53

PyUnicode_READ.exit:                              ; preds = %.lr.ph, %59
  %.02232 = phi i64 [ %61, %59 ], [ 0, %.lr.ph ]
  %.02331 = phi i32 [ %63, %59 ], [ 0, %.lr.ph ]
  %.02430 = phi i64 [ %62, %59 ], [ %5, %.lr.ph ]
  %48 = getelementptr i32, ptr %.0.i, i64 %.02430
  %49 = load i32, ptr %48, align 4, !tbaa !43
  %50 = tail call i32 @_PyUnicode_ToDecimalDigit(i32 noundef %49) #12
  %51 = sext i32 %50 to i64
  %52 = icmp slt i32 %50, 0
  br i1 %52, label %PyUnicode_READ.exit._crit_edge, label %53

53:                                               ; preds = %PyUnicode_READ.exit
  %54 = sub nuw nsw i64 9223372036854775807, %51
  %55 = udiv i64 %54, 10
  %56 = icmp sgt i64 %.02232, %55
  br i1 %56, label %.split.us, label %59

.split.us:                                        ; preds = %39, %24, %53
  %.us-phi40 = phi i64 [ %.02430, %53 ], [ %.02430.us, %24 ], [ %.02430.us47, %39 ]
  %57 = load ptr, ptr @PyExc_ValueError, align 8, !tbaa !20
  %58 = tail call ptr (ptr, ptr, ...) @PyErr_Format(ptr noundef %57, ptr noundef nonnull @.str.2) #12
  store i64 %.us-phi40, ptr %1, align 8, !tbaa !39
  br label %64

59:                                               ; preds = %53
  %60 = mul i64 %.02232, 10
  %61 = add i64 %60, %51
  %62 = add i64 %.02430, 1
  %63 = add i32 %.02331, 1
  %exitcond78.not = icmp eq i64 %62, %2
  br i1 %exitcond78.not, label %PyUnicode_READ.exit._crit_edge, label %PyUnicode_READ.exit, !llvm.loop !53

PyUnicode_READ.exit._crit_edge:                   ; preds = %43, %PyUnicode_READ.exit.us48, %28, %PyUnicode_READ.exit.us, %59, %PyUnicode_READ.exit, %_PyUnicode_DATA.exit
  %.024.lcssa = phi i64 [ %5, %_PyUnicode_DATA.exit ], [ %.02430, %PyUnicode_READ.exit ], [ %2, %59 ], [ %.02430.us, %PyUnicode_READ.exit.us ], [ %2, %28 ], [ %.02430.us47, %PyUnicode_READ.exit.us48 ], [ %2, %43 ]
  %.023.lcssa = phi i32 [ 0, %_PyUnicode_DATA.exit ], [ %.02331, %PyUnicode_READ.exit ], [ %17, %59 ], [ %.02331.us, %PyUnicode_READ.exit.us ], [ %17, %28 ], [ %.02331.us46, %PyUnicode_READ.exit.us48 ], [ %17, %43 ]
  %.022.lcssa = phi i64 [ 0, %_PyUnicode_DATA.exit ], [ %.02232, %PyUnicode_READ.exit ], [ %61, %59 ], [ %.02232.us, %PyUnicode_READ.exit.us ], [ %30, %28 ], [ %.02232.us45, %PyUnicode_READ.exit.us48 ], [ %45, %43 ]
  store i64 %.024.lcssa, ptr %1, align 8, !tbaa !39
  store i64 %.022.lcssa, ptr %3, align 8, !tbaa !39
  br label %64

64:                                               ; preds = %PyUnicode_READ.exit._crit_edge, %.split.us
  %.0 = phi i32 [ %.023.lcssa, %PyUnicode_READ.exit._crit_edge ], [ -1, %.split.us ]
  ret i32 %.0
}